target datalayout = "e-m:e-p270:32:32-p271:32:32-p272:64:64-i64:64-i128:128-f80:128-n8:16:32:64-S128"
target triple = "x86_64-pc-linux-gnu"

%struct.Vector2 = type { float, float }

; Function Attrs: nounwind uwtable
define <2 x float> @Vector2Refract(<2 x float> %0, <2 x float> %1, float noundef %2) #9 {
  %4 = alloca %struct.Vector2, align 4
  %5 = alloca %struct.Vector2, align 4
  %6 = alloca %struct.Vector2, align 4
  %7 = alloca float, align 4
  %8 = alloca float, align 4
  %9 = alloca float, align 4
  store <2 x float> %0, ptr %5, align 4
  store <2 x float> %1, ptr %6, align 4
  store float %2, ptr %7, align 4
  call void @llvm.memset.p0.i64(ptr align 4 %4, i8 0, i64 8, i1 false)
  call void @llvm.lifetime.start.p0(i64 4, ptr %8) #16
  %10 = getelementptr inbounds nuw %struct.Vector2, ptr %5, i32 0, i32 0
  %11 = load float, ptr %10, align 4
  %12 = getelementptr inbounds nuw %struct.Vector2, ptr %6, i32 0, i32 0
  %13 = load float, ptr %12, align 4
  %14 = getelementptr inbounds nuw %struct.Vector2, ptr %5, i32 0, i32 1
  %15 = load float, ptr %14, align 4
  %16 = getelementptr inbounds nuw %struct.Vector2, ptr %6, i32 0, i32 1
  %17 = load float, ptr %16, align 4
  %18 = fmul float %15, %17
  %19 = call float @llvm.fmuladd.f32(float %11, float %13, float %18)
  store float %19, ptr %8, align 4
  call void @llvm.lifetime.start.p0(i64 4, ptr %9) #16
  %20 = load float, ptr %7, align 4
  %21 = load float, ptr %7, align 4
  %22 = fmul float %20, %21
  %23 = load float, ptr %8, align 4
  %24 = load float, ptr %8, align 4
  %25 = fneg float %23
  %26 = call float @llvm.fmuladd.f32(float %25, float %24, float 1.000000e+00)
  %27 = fneg float %22
  %28 = call float @llvm.fmuladd.f32(float %27, float %26, float 1.000000e+00)
  store float %28, ptr %9, align 4
  %29 = load float, ptr %9, align 4
  %30 = fcmp oge float %29, 0.000000e+00
  br i1 %30, label %31, label %60

31:                                               ; preds = %3
  %32 = load float, ptr %9, align 4
  %33 = call float @sqrtf(float noundef %32) #16
  store float %33, ptr %9, align 4
  %34 = load float, ptr %7, align 4
  %35 = getelementptr inbounds nuw %struct.Vector2, ptr %5, i32 0, i32 0
  %36 = load float, ptr %35, align 4
  %37 = load float, ptr %7, align 4
  %38 = load float, ptr %8, align 4
  %39 = load float, ptr %9, align 4
  %40 = call float @llvm.fmuladd.f32(float %37, float %38, float %39)
  %41 = getelementptr inbounds nuw %struct.Vector2, ptr %6, i32 0, i32 0
  %42 = load float, ptr %41, align 4
  %43 = fmul float %40, %42
  %44 = fneg float %43
  %45 = call float @llvm.fmuladd.f32(float %34, float %36, float %44)
  %46 = getelementptr inbounds nuw %struct.Vector2, ptr %5, i32 0, i32 0
  store float %45, ptr %46, align 4
  %47 = load float, ptr %7, align 4
  %48 = getelementptr inbounds nuw %struct.Vector2, ptr %5, i32 0, i32 1
  %49 = load float, ptr %48, align 4
  %50 = load float, ptr %7, align 4
  %51 = load float, ptr %8, align 4
  %52 = load float, ptr %9, align 4
  %53 = call float @llvm.fmuladd.f32(float %50, float %51, float %52)
  %54 = getelementptr inbounds nuw %struct.Vector2, ptr %6, i32 0, i32 1
  %55 = load float, ptr %54, align 4
  %56 = fmul float %53, %55
  %57 = fneg float %56
  %58 = call float @llvm.fmuladd.f32(float %47, float %49, float %57)
  %59 = getelementptr inbounds nuw %struct.Vector2, ptr %5, i32 0, i32 1
  store float %58, ptr %59, align 4
  call void @llvm.memcpy.p0.p0.i64(ptr align 4 %4, ptr align 4 %5, i64 8, i1 false)
  br label %60

60:                                               ; preds = %31, %3
  call void @llvm.lifetime.end.p0(i64 4, ptr %9) #16
  call void @llvm.lifetime.end.p0(i64 4, ptr %8) #16
  %61 = load <2 x float>, ptr %4, align 4
  ret <2 x float> %61
}