; Function Attrs: mustprogress nofree nounwind willreturn memory(write) uwtable
define <2 x float> @Vector2Refract(<2 x float> %0, <2 x float> %1, float noundef %2) local_unnamed_addr #18 {
  %.sroa.018.0.vec.extract = extractelement <2 x float> %0, i64 0
  %.sroa.0.0.vec.extract = extractelement <2 x float> %1, i64 0
  %.sroa.018.4.vec.extract = extractelement <2 x float> %0, i64 1
  %.sroa.0.4.vec.extract = extractelement <2 x float> %1, i64 1
  %4 = fmul float %.sroa.018.4.vec.extract, %.sroa.0.4.vec.extract
  %5 = tail call float @llvm.fmuladd.f32(float %.sroa.018.0.vec.extract, float %.sroa.0.0.vec.extract, float %4)
  %6 = fneg float %5
  %7 = tail call float @llvm.fmuladd.f32(float %6, float %5, float 1.000000e+00)
  %8 = fneg float %2
  %9 = fmul float %2, %8
  %10 = tail call float @llvm.fmuladd.f32(float %9, float %7, float 1.000000e+00)
  %11 = fcmp ult float %10, 0.000000e+00
  br i1 %11, label %21, label %12

12:                                               ; preds = %3
  %13 = tail call float @sqrtf(float noundef %10) #56
  %14 = tail call float @llvm.fmuladd.f32(float %2, float %5, float %13)
  %15 = fneg float %.sroa.0.0.vec.extract
  %16 = fmul float %14, %15
  %17 = tail call float @llvm.fmuladd.f32(float %2, float %.sroa.018.0.vec.extract, float %16)
  %.sroa.018.0.vec.insert = insertelement <2 x float> poison, float %17, i64 0
  %18 = fneg float %.sroa.0.4.vec.extract
  %19 = fmul float %14, %18
  %20 = tail call float @llvm.fmuladd.f32(float %2, float %.sroa.018.4.vec.extract, float %19)
  %.sroa.018.4.vec.insert = insertelement <2 x float> %.sroa.018.0.vec.insert, float %20, i64 1
  br label %21

21:                                               ; preds = %12, %3
  %.sroa.025.0 = phi <2 x float> [ %.sroa.018.4.vec.insert, %12 ], [ zeroinitializer, %3 ]
  ret <2 x float> %.sroa.025.0
}